target datalayout = "e-m:e-p270:32:32-p271:32:32-p272:64:64-i64:64-i128:128-f80:128-n8:16:32:64-S128"
target triple = "x86_64-pc-linux-gnu"

%struct.darktable_t = type { %struct.dt_codepath_t, i32, i32, ptr, ptr, ptr, ptr, ptr, ptr, ptr, ptr, ptr, ptr, ptr, ptr, ptr, ptr, ptr, ptr, ptr, ptr, ptr, ptr, ptr, ptr, ptr, ptr, ptr, ptr, ptr, [64 x %struct.dt_pthread_mutex_t], %struct.dt_pthread_mutex_t, %struct.dt_pthread_mutex_t, %struct.dt_pthread_mutex_t, %struct.dt_pthread_mutex_t, %struct.dt_pthread_mutex_t, ptr, ptr, ptr, ptr, ptr, ptr, ptr, ptr, ptr, ptr, ptr, ptr, ptr, %struct.dt_lua_state_t, ptr, double, ptr, i32, [47 x i32], i32, i32, ptr, ptr, %struct.dt_sys_resources_t, %struct.dt_backthumb_t, %struct.dt_gimp_t }
%struct.dt_codepath_t = type { i8, [3 x i8] }
%struct.dt_pthread_mutex_t = type { %union.pthread_mutex_t }
%union.pthread_mutex_t = type { %struct.__pthread_mutex_s }
%struct.__pthread_mutex_s = type { i32, i32, i32, i32, i32, i16, i16, %struct.__pthread_internal_list }
%struct.__pthread_internal_list = type { ptr, ptr }
%struct.dt_lua_state_t = type { i32 }
%struct.dt_sys_resources_t = type { i64, i64, ptr, ptr, i32 }
%struct.dt_backthumb_t = type { double, double, i32, i32, i32, i32 }
%struct.dt_gimp_t = type { i32, ptr, ptr, i32, i32 }
%struct.dt_control_image_enumerator_t = type { ptr, i32, ptr, i32 }
%struct._GList = type { ptr, ptr, ptr }
%struct.dt_image_t = type { i32, i32, float, float, float, float, float, float, float, [64 x i8], [64 x i8], [128 x i8], [64 x i8], [64 x i8], [64 x i8], [64 x i8], i64, i32, %union.dt_image_correction_data_t, [64 x i8], [64 x i8], [64 x i8], [128 x i8], i32, [256 x i8], i32, i32, i32, i32, i32, i32, i32, i32, i32, i32, float, i32, i32, i32, i32, i32, i32, i64, i64, i64, i64, i32, [12 x i8], %struct.dt_iop_buffer_dsc_t, [9 x float], ptr, i32, i32, %struct.dt_image_raw_parameters_t, %struct.dt_image_geoloc_t, %struct._color_harmony_t, i16, [4 x i16], i32, i32, float, float, [4 x float], [4 x [3 x float]], [4 x float], ptr, ptr, i32, i32, [8 x i8] }
%union.dt_image_correction_data_t = type { %struct.anon.16 }
%struct.anon.16 = type { i32, float, [11 x float], [11 x float], [11 x float], [11 x float], [11 x float] }
%struct.dt_iop_buffer_dsc_t = type { i32, i32, i32, [6 x [6 x i8]], %struct.anon.19, [12 x i8], %struct.anon.20, [4 x float], i32, [12 x i8] }
%struct.anon.19 = type { i16, i16 }
%struct.anon.20 = type { i32, [12 x i8], [4 x float] }
%struct.dt_image_raw_parameters_t = type { i32 }
%struct.dt_image_geoloc_t = type { double, double, double }
%struct._color_harmony_t = type { i32, i32, i32 }
%struct.dt_develop_t = type { i32, i32, i32, ptr, double, double, i32, i32, i32, i32, i32, double, i32, i32, i32, ptr, ptr, [8 x i8], %struct.dt_image_t, i32, i32, %struct.dt_pthread_mutex_t, i32, ptr, i32, ptr, i32, ptr, ptr, i32, ptr, ptr, ptr, ptr, i32, i32, ptr, ptr, ptr, ptr, i32, i32, i32, float, float, ptr, i32, %struct.anon.22, %struct.dt_dev_chroma_t, %struct.anon.25, %struct.anon.26, %struct.anon.27, %struct.anon.28, %struct.anon.29, %struct.anon.30, ptr, ptr, %struct.dt_dev_viewport_t, %struct.dt_dev_viewport_t, i32, i32, i32, ptr, [8 x i8] }
%struct.anon.22 = type { %struct.dt_dev_proxy_exposure_t, ptr, %struct.anon.23, %struct.anon.24 }
%struct.dt_dev_proxy_exposure_t = type { ptr, ptr, ptr, ptr }
%struct.anon.23 = type { ptr, ptr, ptr, ptr, ptr, ptr, ptr, ptr, ptr }
%struct.anon.24 = type { ptr, ptr, ptr, ptr, ptr }
%struct.dt_dev_chroma_t = type { ptr, ptr, [4 x double], [4 x double], [4 x double], i32 }
%struct.anon.25 = type { ptr, ptr, ptr }
%struct.anon.26 = type { ptr, ptr, i32, i32, float, float, i32 }
%struct.anon.27 = type { ptr, ptr, i32, i32, i32, float }
%struct.anon.28 = type { ptr }
%struct.anon.29 = type { ptr, i32 }
%struct.anon.30 = type { ptr, ptr, ptr }
%struct.dt_dev_viewport_t = type { ptr, i32, i32, i32, i32, i32, double, double, double, i32, i32, i32, float, float, float, ptr }
%struct.timeval = type { i64, i64 }

@darktable = external global %struct.darktable_t, align 8
@.str.144 = private unnamed_addr constant [33 x i8] c"compressing history for %d image\00", align 1
@.str.145 = private unnamed_addr constant [34 x i8] c"compressing history for %d images\00", align 1
@.str.146 = private unnamed_addr constant [51 x i8] c"skipped compressing history for image being edited\00", align 1
@.str.147 = private unnamed_addr constant [35 x i8] c"no history compression of %d image\00", align 1
@.str.148 = private unnamed_addr constant [36 x i8] c"no history compression of %d images\00", align 1

; Function Attrs: inlinehint nounwind uwtable
define internal double @dt_get_wtime() #5 {
  %1 = alloca %struct.timeval, align 8
  call void @llvm.lifetime.start.p0(i64 16, ptr %1) #14
  %2 = call i32 @gettimeofday(ptr noundef %1, ptr noundef null) #14
  %3 = getelementptr inbounds nuw %struct.timeval, ptr %1, i32 0, i32 0
  %4 = load i64, ptr %3, align 8, !tbaa !263
  %5 = sub nsw i64 %4, 1290608000
  %6 = sitofp i64 %5 to double
  %7 = getelementptr inbounds nuw %struct.timeval, ptr %1, i32 0, i32 1
  %8 = load i64, ptr %7, align 8, !tbaa !265
  %9 = sitofp i64 %8 to double
  %10 = fmul reassoc nsz arcp contract afn double 0x3EB0C6F7A0B5ED8D, %9
  %11 = fadd reassoc nsz arcp contract afn double %6, %10
  call void @llvm.lifetime.end.p0(i64 16, ptr %1) #14
  ret double %11
}

; Function Attrs: nounwind uwtable
define internal void @_update_progress(ptr noundef %0, double noundef %1, ptr noundef %2) #0 {
  %4 = alloca ptr, align 8
  %5 = alloca double, align 8
  %6 = alloca ptr, align 8
  %7 = alloca double, align 8
  store ptr %0, ptr %4, align 8, !tbaa !51
  store double %1, ptr %5, align 8, !tbaa !61
  store ptr %2, ptr %6, align 8, !tbaa !266
  call void @llvm.lifetime.start.p0(i64 8, ptr %7) #14
  %8 = call reassoc nsz arcp contract afn double @dt_get_wtime()
  store double %8, ptr %7, align 8, !tbaa !61
  %9 = load double, ptr %7, align 8, !tbaa !61
  %10 = load ptr, ptr %6, align 8, !tbaa !266
  %11 = load double, ptr %10, align 8, !tbaa !61
  %12 = fadd reassoc nsz arcp contract afn double %11, 5.000000e-01
  %13 = fcmp reassoc nsz arcp contract afn ogt double %9, %12
  br i1 %13, label %14, label %31

14:                                               ; preds = %3
  %15 = load ptr, ptr %4, align 8, !tbaa !51
  %16 = load double, ptr %5, align 8, !tbaa !61
  %17 = fcmp reassoc nsz arcp contract afn ogt double %16, 1.000000e+00
  br i1 %17, label %18, label %19

18:                                               ; preds = %14
  br label %27

19:                                               ; preds = %14
  %20 = load double, ptr %5, align 8, !tbaa !61
  %21 = fcmp reassoc nsz arcp contract afn olt double %20, 0.000000e+00
  br i1 %21, label %22, label %23

22:                                               ; preds = %19
  br label %25

23:                                               ; preds = %19
  %24 = load double, ptr %5, align 8, !tbaa !61
  br label %25

25:                                               ; preds = %23, %22
  %26 = phi reassoc nsz arcp contract afn double [ 0.000000e+00, %22 ], [ %24, %23 ]
  br label %27

27:                                               ; preds = %25, %18
  %28 = phi reassoc nsz arcp contract afn double [ 1.000000e+00, %18 ], [ %26, %25 ]
  call void @dt_control_job_set_progress(ptr noundef %15, double noundef %28)
  %29 = load double, ptr %7, align 8, !tbaa !61
  %30 = load ptr, ptr %6, align 8, !tbaa !266
  store double %29, ptr %30, align 8, !tbaa !61
  br label %31

31:                                               ; preds = %27, %3
  call void @llvm.lifetime.end.p0(i64 8, ptr %7) #14
  ret void
}

; Function Attrs: inlinehint nounwind uwtable
define internal i32 @_safe_history_job_on_imgid(ptr noundef %0, i32 noundef %1) #5 {
  %3 = alloca ptr, align 8
  %4 = alloca i32, align 4
  store ptr %0, ptr %3, align 8, !tbaa !51
  store i32 %1, ptr %4, align 4, !tbaa !50
  %5 = load ptr, ptr %3, align 8, !tbaa !51
  %6 = call i32 @dt_control_job_is_synchronous(ptr noundef %5)
  %7 = icmp ne i32 %6, 0
  br i1 %7, label %18, label %8

8:                                                ; preds = %2
  %9 = load ptr, ptr getelementptr inbounds nuw (%struct.darktable_t, ptr @darktable, i32 0, i32 9), align 8, !tbaa !143
  %10 = icmp ne ptr %9, null
  br i1 %10, label %11, label %18

11:                                               ; preds = %8
  %12 = load ptr, ptr getelementptr inbounds nuw (%struct.darktable_t, ptr @darktable, i32 0, i32 9), align 8, !tbaa !143
  %13 = getelementptr inbounds nuw %struct.dt_develop_t, ptr %12, i32 0, i32 18
  %14 = getelementptr inbounds nuw %struct.dt_image_t, ptr %13, i32 0, i32 40
  %15 = load i32, ptr %14, align 8, !tbaa !144
  %16 = load i32, ptr %4, align 4, !tbaa !50
  %17 = icmp ne i32 %15, %16
  br label %18

18:                                               ; preds = %11, %8, %2
  %19 = phi i1 [ true, %8 ], [ true, %2 ], [ %17, %11 ]
  %20 = zext i1 %19 to i32
  ret i32 %20
}

; Function Attrs: inlinehint nounwind uwtable
define internal i32 @_job_cancelled(ptr noundef %0) #5 {
  %2 = alloca ptr, align 8
  store ptr %0, ptr %2, align 8, !tbaa !51
  %3 = load ptr, ptr %2, align 8, !tbaa !51
  %4 = call i32 @dt_control_job_get_state(ptr noundef %3)
  %5 = icmp eq i32 %4, 4
  %6 = zext i1 %5 to i32
  ret i32 %6
}

; Function Attrs: nounwind uwtable
define internal i32 @_control_compress_history_job_run(ptr noundef %0) #0 {
  %2 = alloca ptr, align 8
  %3 = alloca ptr, align 8
  %4 = alloca ptr, align 8
  %5 = alloca i32, align 4
  %6 = alloca double, align 8
  %7 = alloca i32, align 4
  %8 = alloca [512 x i8], align 16
  %9 = alloca double, align 8
  %10 = alloca i32, align 4
  store ptr %0, ptr %2, align 8, !tbaa !51
  call void @llvm.lifetime.start.p0(i64 8, ptr %3) #14
  %11 = load ptr, ptr %2, align 8, !tbaa !51
  %12 = call ptr @dt_control_job_get_params(ptr noundef %11)
  store ptr %12, ptr %3, align 8, !tbaa !53
  call void @llvm.lifetime.start.p0(i64 8, ptr %4) #14
  %13 = load ptr, ptr %3, align 8, !tbaa !53
  %14 = getelementptr inbounds nuw %struct.dt_control_image_enumerator_t, ptr %13, i32 0, i32 2
  %15 = load ptr, ptr %14, align 8, !tbaa !59
  store ptr %15, ptr %4, align 8, !tbaa !60
  call void @llvm.lifetime.start.p0(i64 4, ptr %5) #14
  %16 = load ptr, ptr %4, align 8, !tbaa !60
  %17 = call i32 @g_list_length(ptr noundef %16)
  store i32 %17, ptr %5, align 4, !tbaa !50
  call void @llvm.lifetime.start.p0(i64 8, ptr %6) #14
  store double 0.000000e+00, ptr %6, align 8, !tbaa !61
  call void @llvm.lifetime.start.p0(i64 4, ptr %7) #14
  store i32 0, ptr %7, align 4, !tbaa !50
  call void @llvm.lifetime.start.p0(i64 512, ptr %8) #14
  call void @llvm.memset.p0.i64(ptr align 16 %8, i8 0, i64 512, i1 false)
  %18 = getelementptr inbounds [512 x i8], ptr %8, i64 0, i64 0
  %19 = load i32, ptr %5, align 4, !tbaa !50
  %20 = zext i32 %19 to i64
  %21 = call ptr @dcngettext(ptr noundef null, ptr noundef @.str.144, ptr noundef @.str.145, i64 noundef %20, i32 noundef 5) #14
  %22 = load i32, ptr %5, align 4, !tbaa !50
  %23 = call i32 (ptr, i64, ptr, ...) @snprintf(ptr noundef %18, i64 noundef 512, ptr noundef %21, i32 noundef %22) #14
  %24 = load ptr, ptr %2, align 8, !tbaa !51
  %25 = getelementptr inbounds [512 x i8], ptr %8, i64 0, i64 0
  call void @dt_control_job_set_progress_message(ptr noundef %24, ptr noundef %25)
  call void @llvm.lifetime.start.p0(i64 8, ptr %9) #14
  store double 0.000000e+00, ptr %9, align 8, !tbaa !61
  br label %26

26:                                               ; preds = %72, %1
  %27 = load ptr, ptr %4, align 8, !tbaa !60
  %28 = icmp ne ptr %27, null
  br i1 %28, label %29, label %34

29:                                               ; preds = %26
  %30 = load ptr, ptr %2, align 8, !tbaa !51
  %31 = call i32 @_job_cancelled(ptr noundef %30)
  %32 = icmp ne i32 %31, 0
  %33 = xor i1 %32, true
  br label %34

34:                                               ; preds = %29, %26
  %35 = phi i1 [ false, %26 ], [ %33, %29 ]
  br i1 %35, label %36, label %74

36:                                               ; preds = %34
  call void @llvm.lifetime.start.p0(i64 4, ptr %10) #14
  %37 = load ptr, ptr %4, align 8, !tbaa !60
  %38 = getelementptr inbounds nuw %struct._GList, ptr %37, i32 0, i32 0
  %39 = load ptr, ptr %38, align 8, !tbaa !70
  %40 = ptrtoint ptr %39 to i64
  %41 = trunc i64 %40 to i32
  store i32 %41, ptr %10, align 4, !tbaa !50
  %42 = load ptr, ptr %2, align 8, !tbaa !51
  %43 = load i32, ptr %10, align 4, !tbaa !50
  %44 = call i32 @_safe_history_job_on_imgid(ptr noundef %42, i32 noundef %43)
  %45 = icmp ne i32 %44, 0
  br i1 %45, label %46, label %54

46:                                               ; preds = %36
  %47 = load i32, ptr %10, align 4, !tbaa !50
  %48 = call i32 @dt_history_compress(i32 noundef %47)
  %49 = icmp ne i32 %48, 0
  br i1 %49, label %53, label %50

50:                                               ; preds = %46
  %51 = load i32, ptr %7, align 4, !tbaa !50
  %52 = add nsw i32 %51, 1
  store i32 %52, ptr %7, align 4, !tbaa !50
  br label %53

53:                                               ; preds = %50, %46
  br label %56

54:                                               ; preds = %36
  %55 = call ptr @dcgettext(ptr noundef null, ptr noundef @.str.146, i32 noundef 5) #14
  call void (ptr, ...) @dt_control_log(ptr noundef %55)
  br label %56

56:                                               ; preds = %54, %53
  %57 = load i32, ptr %5, align 4, !tbaa !50
  %58 = uitofp i32 %57 to double
  %59 = fdiv reassoc nsz arcp contract afn double 1.000000e+00, %58
  %60 = load double, ptr %6, align 8, !tbaa !61
  %61 = fadd reassoc nsz arcp contract afn double %60, %59
  store double %61, ptr %6, align 8, !tbaa !61
  %62 = load ptr, ptr %2, align 8, !tbaa !51
  %63 = load double, ptr %6, align 8, !tbaa !61
  call void @_update_progress(ptr noundef %62, double noundef %63, ptr noundef %9)
  call void @llvm.lifetime.end.p0(i64 4, ptr %10) #14
  br label %64

64:                                               ; preds = %56
  %65 = load ptr, ptr %4, align 8, !tbaa !60
  %66 = icmp ne ptr %65, null
  br i1 %66, label %67, label %71

67:                                               ; preds = %64
  %68 = load ptr, ptr %4, align 8, !tbaa !60
  %69 = getelementptr inbounds nuw %struct._GList, ptr %68, i32 0, i32 1
  %70 = load ptr, ptr %69, align 8, !tbaa !72
  br label %72

71:                                               ; preds = %64
  br label %72

72:                                               ; preds = %71, %67
  %73 = phi ptr [ %70, %67 ], [ null, %71 ]
  store ptr %73, ptr %4, align 8, !tbaa !60
  br label %26

74:                                               ; preds = %34
  %75 = load ptr, ptr getelementptr inbounds nuw (%struct.darktable_t, ptr @darktable, i32 0, i32 21), align 8, !tbaa !83
  %76 = load ptr, ptr %3, align 8, !tbaa !53
  %77 = getelementptr inbounds nuw %struct.dt_control_image_enumerator_t, ptr %76, i32 0, i32 2
  %78 = load ptr, ptr %77, align 8, !tbaa !59
  call void @dt_collection_update_query(ptr noundef %75, i32 noundef 3, i32 noundef 43, ptr noundef %78)
  %79 = load ptr, ptr %3, align 8, !tbaa !53
  %80 = getelementptr inbounds nuw %struct.dt_control_image_enumerator_t, ptr %79, i32 0, i32 2
  store ptr null, ptr %80, align 8, !tbaa !59
  call void (...) @dt_control_queue_redraw_center()
  %81 = load i32, ptr %7, align 4, !tbaa !50
  %82 = icmp ne i32 %81, 0
  br i1 %82, label %83, label %88

83:                                               ; preds = %74
  %84 = load i32, ptr %7, align 4, !tbaa !50
  %85 = sext i32 %84 to i64
  %86 = call ptr @dcngettext(ptr noundef null, ptr noundef @.str.147, ptr noundef @.str.148, i64 noundef %85, i32 noundef 5) #14
  %87 = load i32, ptr %7, align 4, !tbaa !50
  call void (ptr, ...) @dt_control_log(ptr noundef %86, i32 noundef %87)
  br label %88

88:                                               ; preds = %83, %74
  call void @llvm.lifetime.end.p0(i64 8, ptr %9) #14
  call void @llvm.lifetime.end.p0(i64 512, ptr %8) #14
  call void @llvm.lifetime.end.p0(i64 4, ptr %7) #14
  call void @llvm.lifetime.end.p0(i64 8, ptr %6) #14
  call void @llvm.lifetime.end.p0(i64 4, ptr %5) #14
  call void @llvm.lifetime.end.p0(i64 8, ptr %4) #14
  call void @llvm.lifetime.end.p0(i64 8, ptr %3) #14
  ret i32 0
}