; Function Attrs: nounwind uwtable
define internal noundef i32 @_control_compress_history_job_run(ptr noundef %0) #0 {
  %2 = alloca %struct.timeval, align 8
  %3 = alloca [512 x i8], align 16
  %4 = tail call ptr @dt_control_job_get_params(ptr noundef %0) #17
  %5 = getelementptr inbounds nuw i8, ptr %4, i64 16
  %6 = load ptr, ptr %5, align 8, !tbaa !52
  %7 = tail call i32 @g_list_length(ptr noundef %6) #17
  call void @llvm.lifetime.start.p0(i64 512, ptr nonnull %3) #17
  call void @llvm.memset.p0.i64(ptr noundef nonnull align 16 dereferenceable(512) %3, i8 0, i64 512, i1 false)
  %8 = zext i32 %7 to i64
  %9 = tail call ptr @dcngettext(ptr noundef null, ptr noundef nonnull @.str.144, ptr noundef nonnull @.str.145, i64 noundef %8, i32 noundef 5) #17
  %10 = call i32 (ptr, i64, ptr, ...) @snprintf(ptr noundef nonnull dereferenceable(1) %3, i64 noundef 512, ptr noundef %9, i32 noundef %7) #17
  call void @dt_control_job_set_progress_message(ptr noundef %0, ptr noundef nonnull %3) #17
  %.not34 = icmp eq ptr %6, null
  br i1 %.not34, label %.critedge, label %.lr.ph

.lr.ph:                                           ; preds = %1
  %11 = uitofp i32 %7 to double
  %12 = fdiv reassoc nsz arcp contract afn double 1.000000e+00, %11
  %13 = getelementptr inbounds nuw i8, ptr %2, i64 8
  br label %14

14:                                               ; preds = %.lr.ph, %_update_progress.exit
  %.038 = phi ptr [ %6, %.lr.ph ], [ %48, %_update_progress.exit ]
  %.02337 = phi i32 [ 0, %.lr.ph ], [ %.1, %_update_progress.exit ]
  %.02436 = phi double [ 0.000000e+00, %.lr.ph ], [ %31, %_update_progress.exit ]
  %.02935 = phi double [ 0.000000e+00, %.lr.ph ], [ %.130, %_update_progress.exit ]
  %15 = call i32 @dt_control_job_get_state(ptr noundef %0) #17
  %.not32 = icmp eq i32 %15, 4
  br i1 %.not32, label %.critedge, label %16

16:                                               ; preds = %14
  %17 = load ptr, ptr %.038, align 8, !tbaa !61
  %18 = ptrtoint ptr %17 to i64
  %19 = trunc i64 %18 to i32
  %20 = call i32 @dt_control_job_is_synchronous(ptr noundef %0) #17
  %21 = icmp eq i32 %20, 0
  %22 = load ptr, ptr getelementptr inbounds nuw (i8, ptr @darktable, i64 64), align 8
  %23 = icmp ne ptr %22, null
  %or.cond.i = select i1 %21, i1 %23, i1 false
  br i1 %or.cond.i, label %_safe_history_job_on_imgid.exit, label %_safe_history_job_on_imgid.exit.thread

_safe_history_job_on_imgid.exit:                  ; preds = %16
  %24 = getelementptr inbounds nuw i8, ptr %22, i64 1544
  %25 = load i32, ptr %24, align 8, !tbaa !130
  %.not33 = icmp eq i32 %25, %19
  br i1 %.not33, label %28, label %_safe_history_job_on_imgid.exit.thread

_safe_history_job_on_imgid.exit.thread:           ; preds = %16, %_safe_history_job_on_imgid.exit
  %26 = call i32 @dt_history_compress(i32 noundef %19) #17
  %.not28 = icmp eq i32 %26, 0
  %27 = zext i1 %.not28 to i32
  %spec.select = add nsw i32 %.02337, %27
  br label %30

28:                                               ; preds = %_safe_history_job_on_imgid.exit
  %29 = call ptr @dcgettext(ptr noundef null, ptr noundef nonnull @.str.146, i32 noundef 5) #17
  call void (ptr, ...) @dt_control_log(ptr noundef %29) #17
  br label %30

30:                                               ; preds = %_safe_history_job_on_imgid.exit.thread, %28
  %.1 = phi i32 [ %.02337, %28 ], [ %spec.select, %_safe_history_job_on_imgid.exit.thread ]
  %31 = fadd reassoc nsz arcp contract afn double %.02436, %12
  call void @llvm.lifetime.start.p0(i64 16, ptr nonnull %2) #17
  %32 = call i32 @gettimeofday(ptr noundef nonnull %2, ptr noundef null) #17
  %33 = load i64, ptr %2, align 8, !tbaa !88
  %34 = add nsw i64 %33, -1290608000
  %35 = sitofp i64 %34 to double
  %36 = load i64, ptr %13, align 8, !tbaa !90
  %37 = sitofp i64 %36 to double
  %38 = fmul reassoc nsz arcp contract afn double %37, 0x3EB0C6F7A0B5ED8D
  %39 = fadd reassoc nsz arcp contract afn double %38, %35
  call void @llvm.lifetime.end.p0(i64 16, ptr nonnull %2) #17
  %40 = fadd reassoc nsz arcp contract afn double %.02935, 5.000000e-01
  %41 = fcmp reassoc nsz arcp contract afn ogt double %39, %40
  br i1 %41, label %42, label %_update_progress.exit

42:                                               ; preds = %30
  %43 = fcmp reassoc nsz arcp contract afn ogt double %31, 1.000000e+00
  %44 = fcmp reassoc nsz arcp contract afn olt double %31, 0.000000e+00
  %45 = select reassoc nsz arcp contract afn i1 %44, double 0.000000e+00, double %31
  %46 = select reassoc nsz arcp contract afn i1 %43, double 1.000000e+00, double %45
  call void @dt_control_job_set_progress(ptr noundef %0, double noundef %46) #17
  br label %_update_progress.exit

_update_progress.exit:                            ; preds = %30, %42
  %.130 = phi nsz double [ %39, %42 ], [ %.02935, %30 ]
  %47 = getelementptr inbounds nuw i8, ptr %.038, i64 8
  %48 = load ptr, ptr %47, align 8, !tbaa !63
  %.not = icmp eq ptr %48, null
  br i1 %.not, label %.critedge, label %14

.critedge:                                        ; preds = %14, %_update_progress.exit, %1
  %.023.lcssa = phi i32 [ 0, %1 ], [ %.1, %_update_progress.exit ], [ %.02337, %14 ]
  %49 = load ptr, ptr getelementptr inbounds nuw (i8, ptr @darktable, i64 160), align 8, !tbaa !75
  %50 = load ptr, ptr %5, align 8, !tbaa !52
  call void @dt_collection_update_query(ptr noundef %49, i32 noundef 3, i32 noundef 43, ptr noundef %50) #17
  store ptr null, ptr %5, align 8, !tbaa !52
  call void (...) @dt_control_queue_redraw_center() #17
  %.not26 = icmp eq i32 %.023.lcssa, 0
  br i1 %.not26, label %54, label %51

51:                                               ; preds = %.critedge
  %52 = sext i32 %.023.lcssa to i64
  %53 = call ptr @dcngettext(ptr noundef null, ptr noundef nonnull @.str.147, ptr noundef nonnull @.str.148, i64 noundef %52, i32 noundef 5) #17
  call void (ptr, ...) @dt_control_log(ptr noundef %53, i32 noundef %.023.lcssa) #17
  br label %54

54:                                               ; preds = %51, %.critedge
  call void @llvm.lifetime.end.p0(i64 512, ptr nonnull %3) #17
  ret i32 0
}